target datalayout = "e-m:e-p270:32:32-p271:32:32-p272:64:64-i64:64-i128:128-f80:128-n8:16:32:64-S128"
target triple = "x86_64-pc-linux-gnu"

%struct.pattern = type { %"class.std::__cxx11::basic_string", i32, i32, %struct.hs_expr_ext }
%"class.std::__cxx11::basic_string" = type { %"struct.std::__cxx11::basic_string<char>::_Alloc_hider", i64, %union.anon }
%"struct.std::__cxx11::basic_string<char>::_Alloc_hider" = type { ptr }
%union.anon = type { i64, [8 x i8] }
%struct.hs_expr_ext = type { i64, i64, i64, i64, i32, i32 }
%"class.std::tuple" = type { %"struct.std::_Tuple_impl.base", [4 x i8] }
%"struct.std::_Tuple_impl.base" = type <{ %"struct.std::_Tuple_impl.23", %"struct.std::_Head_base.24" }>
%"struct.std::_Tuple_impl.23" = type { %"struct.std::_Head_base" }
%"struct.std::_Head_base" = type { %struct.pattern }
%"struct.std::_Head_base.24" = type { i32 }
%"class.testing::internal::TestFactoryBase" = type { ptr }
%"class.testing::internal::ParameterizedTestFactory.36" = type { %"class.testing::internal::TestFactoryBase", %"class.std::tuple" }

@_ZN7testing18WithParamInterfaceISt5tupleIJj7patternEEE10parameter_E = linkonce_odr hidden global ptr null, comdat, align 8

; Function Attrs: inlinehint mustprogress nounwind uwtable
define linkonce_odr hidden void @_ZN7testing18WithParamInterfaceISt5tupleIJj7patternEEEC2Ev(ptr noundef nonnull align 8 dereferenceable(8) %0) unnamed_addr #7 comdat align 2 {
  %2 = alloca ptr, align 8
  store ptr %0, ptr %2, align 8
  %3 = load ptr, ptr %2, align 8
  store ptr getelementptr inbounds inrange(-16, 16) ({ [4 x ptr] }, ptr @_ZTVN7testing18WithParamInterfaceISt5tupleIJj7patternEEEE, i32 0, i32 0, i32 2), ptr %3, align 8
  ret void
}

; Function Attrs: inlinehint mustprogress uwtable
define linkonce_odr hidden void @_ZN7testing13TestWithParamISt5tupleIJj7patternEEEC2Ev(ptr noundef nonnull align 8 dereferenceable(24) %0) unnamed_addr #13 comdat align 2 {
  %2 = alloca ptr, align 8
  store ptr %0, ptr %2, align 8
  %3 = load ptr, ptr %2, align 8
  call void @_ZN7testing4TestC2Ev(ptr noundef nonnull align 8 dereferenceable(16) %3)
  %4 = getelementptr inbounds i8, ptr %3, i64 16
  call void @_ZN7testing18WithParamInterfaceISt5tupleIJj7patternEEEC2Ev(ptr noundef nonnull align 8 dereferenceable(8) %4) #3
  store ptr getelementptr inbounds inrange(-16, 48) ({ [8 x ptr], [4 x ptr] }, ptr @_ZTVN7testing13TestWithParamISt5tupleIJj7patternEEEE, i32 0, i32 0, i32 2), ptr %3, align 8
  %5 = getelementptr inbounds i8, ptr %3, i64 16
  store ptr getelementptr inbounds inrange(-16, 16) ({ [8 x ptr], [4 x ptr] }, ptr @_ZTVN7testing13TestWithParamISt5tupleIJj7patternEEEE, i32 0, i32 1, i32 2), ptr %5, align 8
  ret void
}

; Function Attrs: inlinehint mustprogress uwtable
define internal void @_ZN12_GLOBAL__N_110SerializePC2Ev(ptr noundef nonnull align 8 dereferenceable(24) %0) unnamed_addr #13 align 2 {
  %2 = alloca ptr, align 8
  store ptr %0, ptr %2, align 8
  %3 = load ptr, ptr %2, align 8
  call void @_ZN7testing13TestWithParamISt5tupleIJj7patternEEEC2Ev(ptr noundef nonnull align 8 dereferenceable(24) %3)
  store ptr getelementptr inbounds inrange(-16, 48) ({ [8 x ptr], [4 x ptr] }, ptr @_ZTVN12_GLOBAL__N_110SerializePE, i32 0, i32 0, i32 2), ptr %3, align 8
  %4 = getelementptr inbounds i8, ptr %3, i64 16
  store ptr getelementptr inbounds inrange(-16, 16) ({ [8 x ptr], [4 x ptr] }, ptr @_ZTVN12_GLOBAL__N_110SerializePE, i32 0, i32 1, i32 2), ptr %4, align 8
  ret void
}

; Function Attrs: mustprogress uwtable
define internal void @_ZN12_GLOBAL__N_145SerializeP_DeserializeAtFromAnyAlignment_TestC2Ev(ptr noundef nonnull align 8 dereferenceable(24) %0) unnamed_addr #6 align 2 {
  %2 = alloca ptr, align 8
  store ptr %0, ptr %2, align 8
  %3 = load ptr, ptr %2, align 8
  call void @_ZN12_GLOBAL__N_110SerializePC2Ev(ptr noundef nonnull align 8 dereferenceable(24) %3)
  store ptr getelementptr inbounds inrange(-16, 48) ({ [8 x ptr], [4 x ptr] }, ptr @_ZTVN12_GLOBAL__N_145SerializeP_DeserializeAtFromAnyAlignment_TestE, i32 0, i32 0, i32 2), ptr %3, align 8
  %4 = getelementptr inbounds i8, ptr %3, i64 16
  store ptr getelementptr inbounds inrange(-16, 16) ({ [8 x ptr], [4 x ptr] }, ptr @_ZTVN12_GLOBAL__N_145SerializeP_DeserializeAtFromAnyAlignment_TestE, i32 0, i32 1, i32 2), ptr %4, align 8
  ret void
}

; Function Attrs: mustprogress nounwind uwtable
define linkonce_odr hidden void @_ZN7testing18WithParamInterfaceISt5tupleIJj7patternEEE8SetParamEPKS3_(ptr noundef %0) #5 comdat align 2 {
  %2 = alloca ptr, align 8
  store ptr %0, ptr %2, align 8
  %3 = load ptr, ptr %2, align 8
  store ptr %3, ptr @_ZN7testing18WithParamInterfaceISt5tupleIJj7patternEEE10parameter_E, align 8
  ret void
}

; Function Attrs: mustprogress uwtable
define internal noundef ptr @_ZN7testing8internal24ParameterizedTestFactoryIN12_GLOBAL__N_145SerializeP_DeserializeAtFromAnyAlignment_TestEE10CreateTestEv(ptr noundef nonnull align 8 dereferenceable(96) %0) unnamed_addr #6 align 2 personality ptr @__gxx_personality_v0 {
  %2 = alloca ptr, align 8
  %3 = alloca ptr, align 8
  %4 = alloca i32, align 4
  store ptr %0, ptr %2, align 8
  %5 = load ptr, ptr %2, align 8
  %6 = getelementptr inbounds nuw %"class.testing::internal::ParameterizedTestFactory.36", ptr %5, i32 0, i32 1
  call void @_ZN7testing18WithParamInterfaceISt5tupleIJj7patternEEE8SetParamEPKS3_(ptr noundef %6)
  %7 = call noalias noundef nonnull ptr @_Znwm(i64 noundef 24) #26
  invoke void @_ZN12_GLOBAL__N_145SerializeP_DeserializeAtFromAnyAlignment_TestC2Ev(ptr noundef nonnull align 8 dereferenceable(24) %7)
          to label %8 unwind label %9

8:                                                ; preds = %1
  ret ptr %7

9:                                                ; preds = %1
  %10 = landingpad { ptr, i32 }
          cleanup
  %11 = extractvalue { ptr, i32 } %10, 0
  store ptr %11, ptr %3, align 8
  %12 = extractvalue { ptr, i32 } %10, 1
  store i32 %12, ptr %4, align 4
  call void @_ZdlPv(ptr noundef %7) #27
  br label %13

13:                                               ; preds = %9
  %14 = load ptr, ptr %3, align 8
  %15 = load i32, ptr %4, align 4
  %16 = insertvalue { ptr, i32 } poison, ptr %14, 0
  %17 = insertvalue { ptr, i32 } %16, i32 %15, 1
  resume { ptr, i32 } %17
}